target datalayout = "e-m:e-p270:32:32-p271:32:32-p272:64:64-i64:64-i128:128-f80:128-n8:16:32:64-S128"
target triple = "x86_64-pc-linux-gnu"

; Function Attrs: nounwind uwtable
define internal zeroext i8 @lv_text_utf8_size(ptr noundef %0) #0 {
  %2 = alloca i8, align 1
  %3 = alloca ptr, align 8
  store ptr %0, ptr %3, align 8, !tbaa !3
  %4 = load ptr, ptr %3, align 8, !tbaa !3
  %5 = getelementptr inbounds i8, ptr %4, i64 0
  %6 = load i8, ptr %5, align 1, !tbaa !7
  %7 = sext i8 %6 to i32
  %8 = and i32 %7, 128
  %9 = icmp eq i32 %8, 0
  br i1 %9, label %10, label %11

10:                                               ; preds = %1
  store i8 1, ptr %2, align 1
  br label %39

11:                                               ; preds = %1
  %12 = load ptr, ptr %3, align 8, !tbaa !3
  %13 = getelementptr inbounds i8, ptr %12, i64 0
  %14 = load i8, ptr %13, align 1, !tbaa !7
  %15 = sext i8 %14 to i32
  %16 = and i32 %15, 224
  %17 = icmp eq i32 %16, 192
  br i1 %17, label %18, label %19

18:                                               ; preds = %11
  store i8 2, ptr %2, align 1
  br label %39

19:                                               ; preds = %11
  %20 = load ptr, ptr %3, align 8, !tbaa !3
  %21 = getelementptr inbounds i8, ptr %20, i64 0
  %22 = load i8, ptr %21, align 1, !tbaa !7
  %23 = sext i8 %22 to i32
  %24 = and i32 %23, 240
  %25 = icmp eq i32 %24, 224
  br i1 %25, label %26, label %27

26:                                               ; preds = %19
  store i8 3, ptr %2, align 1
  br label %39

27:                                               ; preds = %19
  %28 = load ptr, ptr %3, align 8, !tbaa !3
  %29 = getelementptr inbounds i8, ptr %28, i64 0
  %30 = load i8, ptr %29, align 1, !tbaa !7
  %31 = sext i8 %30 to i32
  %32 = and i32 %31, 248
  %33 = icmp eq i32 %32, 240
  br i1 %33, label %34, label %35

34:                                               ; preds = %27
  store i8 4, ptr %2, align 1
  br label %39

35:                                               ; preds = %27
  br label %36

36:                                               ; preds = %35
  br label %37

37:                                               ; preds = %36
  br label %38

38:                                               ; preds = %37
  store i8 0, ptr %2, align 1
  br label %39

39:                                               ; preds = %38, %34, %26, %18, %10
  %40 = load i8, ptr %2, align 1
  ret i8 %40
}

; Function Attrs: nounwind uwtable
define internal i32 @lv_text_utf8_prev(ptr noundef %0, ptr noundef %1) #0 {
  %3 = alloca i32, align 4
  %4 = alloca ptr, align 8
  %5 = alloca ptr, align 8
  %6 = alloca i8, align 1
  %7 = alloca i8, align 1
  %8 = alloca i32, align 4
  %9 = alloca i32, align 4
  %10 = alloca i32, align 4
  store ptr %0, ptr %4, align 8, !tbaa !3
  store ptr %1, ptr %5, align 8, !tbaa !3
  call void @llvm.lifetime.start.p0(i64 1, ptr %6) #5
  call void @llvm.lifetime.start.p0(i64 1, ptr %7) #5
  store i8 0, ptr %7, align 1, !tbaa !7
  %11 = load ptr, ptr %5, align 8, !tbaa !3
  %12 = load i32, ptr %11, align 4, !tbaa !8
  %13 = add i32 %12, -1
  store i32 %13, ptr %11, align 4, !tbaa !8
  br label %14

14:                                               ; preds = %42, %2
  %15 = load i8, ptr %7, align 1, !tbaa !7
  %16 = zext i8 %15 to i32
  %17 = icmp sge i32 %16, 4
  br i1 %17, label %18, label %19

18:                                               ; preds = %14
  store i32 0, ptr %3, align 4
  store i32 1, ptr %8, align 4
  br label %52

19:                                               ; preds = %14
  %20 = load ptr, ptr %4, align 8, !tbaa !3
  %21 = load ptr, ptr %5, align 8, !tbaa !3
  %22 = load i32, ptr %21, align 4, !tbaa !8
  %23 = zext i32 %22 to i64
  %24 = getelementptr inbounds nuw i8, ptr %20, i64 %23
  %25 = call zeroext i8 @lv_text_utf8_size(ptr noundef %24)
  store i8 %25, ptr %6, align 1, !tbaa !7
  %26 = load i8, ptr %6, align 1, !tbaa !7
  %27 = zext i8 %26 to i32
  %28 = icmp eq i32 %27, 0
  br i1 %28, label %29, label %39

29:                                               ; preds = %19
  %30 = load ptr, ptr %5, align 8, !tbaa !3
  %31 = load i32, ptr %30, align 4, !tbaa !8
  %32 = icmp ne i32 %31, 0
  br i1 %32, label %33, label %37

33:                                               ; preds = %29
  %34 = load ptr, ptr %5, align 8, !tbaa !3
  %35 = load i32, ptr %34, align 4, !tbaa !8
  %36 = add i32 %35, -1
  store i32 %36, ptr %34, align 4, !tbaa !8
  br label %38

37:                                               ; preds = %29
  store i32 0, ptr %3, align 4
  store i32 1, ptr %8, align 4
  br label %52

38:                                               ; preds = %33
  br label %39

39:                                               ; preds = %38, %19
  %40 = load i8, ptr %7, align 1, !tbaa !7
  %41 = add i8 %40, 1
  store i8 %41, ptr %7, align 1, !tbaa !7
  br label %42

42:                                               ; preds = %39
  %43 = load i8, ptr %6, align 1, !tbaa !7
  %44 = zext i8 %43 to i32
  %45 = icmp eq i32 %44, 0
  br i1 %45, label %14, label %46, !llvm.loop !12

46:                                               ; preds = %42
  call void @llvm.lifetime.start.p0(i64 4, ptr %9) #5
  %47 = load ptr, ptr %5, align 8, !tbaa !3
  %48 = load i32, ptr %47, align 4, !tbaa !8
  store i32 %48, ptr %9, align 4, !tbaa !8
  call void @llvm.lifetime.start.p0(i64 4, ptr %10) #5
  %49 = load ptr, ptr %4, align 8, !tbaa !3
  %50 = call i32 @lv_text_utf8_next(ptr noundef %49, ptr noundef %9)
  store i32 %50, ptr %10, align 4, !tbaa !8
  %51 = load i32, ptr %10, align 4, !tbaa !8
  store i32 %51, ptr %3, align 4
  store i32 1, ptr %8, align 4
  call void @llvm.lifetime.end.p0(i64 4, ptr %10) #5
  call void @llvm.lifetime.end.p0(i64 4, ptr %9) #5
  br label %52

52:                                               ; preds = %46, %37, %18
  call void @llvm.lifetime.end.p0(i64 1, ptr %7) #5
  call void @llvm.lifetime.end.p0(i64 1, ptr %6) #5
  %53 = load i32, ptr %3, align 4
  ret i32 %53
}