; Function Attrs: nofree norecurse nosync nounwind memory(argmem: readwrite) uwtable
define internal range(i32 0, 2097152) i32 @lv_text_utf8_prev(ptr nocapture noundef readonly %0, ptr nocapture noundef %1) #4 {
  %3 = alloca i32, align 4
  %4 = load i32, ptr %1, align 4, !tbaa !6
  %5 = add i32 %4, -1
  store i32 %5, ptr %1, align 4, !tbaa !6
  br label %6

6:                                                ; preds = %2, %19
  %7 = phi i32 [ %5, %2 ], [ %20, %19 ]
  %.01220 = phi i8 [ 0, %2 ], [ %21, %19 ]
  %8 = zext i32 %7 to i64
  %9 = getelementptr inbounds nuw i8, ptr %0, i64 %8
  %10 = load i8, ptr %9, align 1, !tbaa !3
  %11 = zext i8 %10 to i32
  %12 = icmp sgt i8 %10, -1
  %13 = and i32 %11, 224
  %14 = icmp eq i32 %13, 192
  %or.cond = or i1 %12, %14
  %15 = and i32 %11, 240
  %16 = icmp eq i32 %15, 224
  %or.cond17 = or i1 %16, %or.cond
  %17 = and i32 %11, 248
  %18 = icmp eq i32 %17, 240
  %or.cond19 = or i1 %18, %or.cond17
  br i1 %or.cond19, label %select.unfold, label %lv_text_utf8_size.exit

lv_text_utf8_size.exit:                           ; preds = %6
  %.not = icmp eq i32 %7, 0
  br i1 %.not, label %.loopexit, label %19

19:                                               ; preds = %lv_text_utf8_size.exit
  %20 = add i32 %7, -1
  store i32 %20, ptr %1, align 4, !tbaa !6
  %21 = add nuw nsw i8 %.01220, 1
  %exitcond = icmp eq i8 %21, 4
  br i1 %exitcond, label %.loopexit, label %6, !llvm.loop !10

select.unfold:                                    ; preds = %6
  call void @llvm.lifetime.start.p0(i64 4, ptr nonnull %3) #11
  store i32 %7, ptr %3, align 4, !tbaa !6
  %22 = call i32 @lv_text_utf8_next(ptr noundef nonnull %0, ptr noundef nonnull %3)
  call void @llvm.lifetime.end.p0(i64 4, ptr nonnull %3) #11
  br label %.loopexit

.loopexit:                                        ; preds = %lv_text_utf8_size.exit, %19, %select.unfold
  %.0 = phi i32 [ %22, %select.unfold ], [ 0, %19 ], [ 0, %lv_text_utf8_size.exit ]
  ret i32 %.0
}